target datalayout = "e-m:e-p270:32:32-p271:32:32-p272:64:64-i64:64-i128:128-f80:128-n8:16:32:64-S128"
target triple = "x86_64-pc-linux-gnu"

%struct.traceobj_arg = type { i32, i32, i64, i64, ptr, ptr, ptr }

; Function Attrs: nounwind sspstrong uwtable
define internal i64 @allocation_info_tracer_memsize(ptr noundef %0) #0 {
  %2 = alloca ptr, align 8
  %3 = alloca i64, align 8
  %4 = alloca ptr, align 8
  store ptr %0, ptr %2, align 8, !tbaa !32
  call void @llvm.lifetime.start.p0(i64 8, ptr %3) #17
  call void @llvm.lifetime.start.p0(i64 8, ptr %4) #17
  %5 = load ptr, ptr %2, align 8, !tbaa !32
  store ptr %5, ptr %4, align 8, !tbaa !10
  store i64 48, ptr %3, align 8, !tbaa !6
  %6 = load ptr, ptr %4, align 8, !tbaa !10
  %7 = getelementptr inbounds nuw %struct.traceobj_arg, ptr %6, i32 0, i32 4
  %8 = load ptr, ptr %7, align 8, !tbaa !13
  %9 = call i64 @rb_st_memsize(ptr noundef %8) #19
  %10 = load i64, ptr %3, align 8, !tbaa !6
  %11 = add i64 %10, %9
  store i64 %11, ptr %3, align 8, !tbaa !6
  %12 = load ptr, ptr %4, align 8, !tbaa !10
  %13 = getelementptr inbounds nuw %struct.traceobj_arg, ptr %12, i32 0, i32 5
  %14 = load ptr, ptr %13, align 8, !tbaa !20
  %15 = call i64 @rb_st_memsize(ptr noundef %14) #19
  %16 = load i64, ptr %3, align 8, !tbaa !6
  %17 = add i64 %16, %15
  store i64 %17, ptr %3, align 8, !tbaa !6
  %18 = load i64, ptr %3, align 8, !tbaa !6
  call void @llvm.lifetime.end.p0(i64 8, ptr %4) #17
  call void @llvm.lifetime.end.p0(i64 8, ptr %3) #17
  ret i64 %18
}