; Function Attrs: mustprogress nofree nounwind sspstrong willreturn memory(read) uwtable
define internal i64 @allocation_info_tracer_memsize(ptr noundef readonly captures(none) %0) #3 {
  %2 = getelementptr inbounds nuw i8, ptr %0, i64 24
  %3 = load ptr, ptr %2, align 8, !tbaa !11
  %4 = tail call i64 @rb_st_memsize(ptr noundef %3) #12
  %5 = add i64 %4, 48
  %6 = getelementptr inbounds nuw i8, ptr %0, i64 32
  %7 = load ptr, ptr %6, align 8, !tbaa !24
  %8 = tail call i64 @rb_st_memsize(ptr noundef %7) #12
  %9 = add i64 %5, %8
  ret i64 %9
}